; Function Attrs: mustprogress noreturn uwtable
define hidden noundef i32 @_ZN17duckdb_libpgquery15errmsg_internalEPKcz(ptr noundef readnone captures(none) %0, ...) local_unnamed_addr #14 personality ptr @__gxx_personality_v0 {
  %2 = tail call ptr @__cxa_allocate_exception(i64 16) #24
  invoke void @_ZNSt13runtime_errorC1EPKc(ptr noundef nonnull align 8 dereferenceable(16) %2, ptr noundef nonnull @.str.2)
          to label %3 unwind label %4

3:                                                ; preds = %1
  tail call void @__cxa_throw(ptr nonnull %2, ptr nonnull @_ZTISt13runtime_error, ptr nonnull @_ZNSt13runtime_errorD1Ev) #25
  unreachable

4:                                                ; preds = %1
  %5 = landingpad { ptr, i32 }
          cleanup
  tail call void @__cxa_free_exception(ptr nonnull %2) #24
  resume { ptr, i32 } %5
}